target datalayout = "e-m:e-p270:32:32-p271:32:32-p272:64:64-i64:64-i128:128-f80:128-n8:16:32:64-S128"
target triple = "x86_64-pc-linux-gnu"

%struct._generic_SUNMatrix = type { ptr, ptr, ptr }
%struct._SUNMatrixContent_Sparse = type { i64, i64, i64, i64, ptr, i32, ptr, ptr, ptr, ptr, ptr, ptr }

; Function Attrs: nounwind uwtable
define i32 @SUNMatZero_Sparse(ptr noundef %0) #0 {
  %2 = alloca ptr, align 8
  %3 = alloca i64, align 8
  store ptr %0, ptr %2, align 8, !tbaa !12
  call void @llvm.lifetime.start.p0(i64 8, ptr %3) #8
  store i64 0, ptr %3, align 8, !tbaa !3
  br label %4

4:                                                ; preds = %27, %1
  %5 = load i64, ptr %3, align 8, !tbaa !3
  %6 = load ptr, ptr %2, align 8, !tbaa !12
  %7 = getelementptr inbounds nuw %struct._generic_SUNMatrix, ptr %6, i32 0, i32 0
  %8 = load ptr, ptr %7, align 8, !tbaa !29
  %9 = getelementptr inbounds nuw %struct._SUNMatrixContent_Sparse, ptr %8, i32 0, i32 2
  %10 = load i64, ptr %9, align 8, !tbaa !37
  %11 = icmp slt i64 %5, %10
  br i1 %11, label %12, label %30

12:                                               ; preds = %4
  %13 = load ptr, ptr %2, align 8, !tbaa !12
  %14 = getelementptr inbounds nuw %struct._generic_SUNMatrix, ptr %13, i32 0, i32 0
  %15 = load ptr, ptr %14, align 8, !tbaa !29
  %16 = getelementptr inbounds nuw %struct._SUNMatrixContent_Sparse, ptr %15, i32 0, i32 4
  %17 = load ptr, ptr %16, align 8, !tbaa !43
  %18 = load i64, ptr %3, align 8, !tbaa !3
  %19 = getelementptr inbounds double, ptr %17, i64 %18
  store double 0.000000e+00, ptr %19, align 8, !tbaa !47
  %20 = load ptr, ptr %2, align 8, !tbaa !12
  %21 = getelementptr inbounds nuw %struct._generic_SUNMatrix, ptr %20, i32 0, i32 0
  %22 = load ptr, ptr %21, align 8, !tbaa !29
  %23 = getelementptr inbounds nuw %struct._SUNMatrixContent_Sparse, ptr %22, i32 0, i32 6
  %24 = load ptr, ptr %23, align 8, !tbaa !44
  %25 = load i64, ptr %3, align 8, !tbaa !3
  %26 = getelementptr inbounds i64, ptr %24, i64 %25
  store i64 0, ptr %26, align 8, !tbaa !3
  br label %27

27:                                               ; preds = %12
  %28 = load i64, ptr %3, align 8, !tbaa !3
  %29 = add nsw i64 %28, 1
  store i64 %29, ptr %3, align 8, !tbaa !3
  br label %4

30:                                               ; preds = %4
  store i64 0, ptr %3, align 8, !tbaa !3
  br label %31

31:                                               ; preds = %47, %30
  %32 = load i64, ptr %3, align 8, !tbaa !3
  %33 = load ptr, ptr %2, align 8, !tbaa !12
  %34 = getelementptr inbounds nuw %struct._generic_SUNMatrix, ptr %33, i32 0, i32 0
  %35 = load ptr, ptr %34, align 8, !tbaa !29
  %36 = getelementptr inbounds nuw %struct._SUNMatrixContent_Sparse, ptr %35, i32 0, i32 3
  %37 = load i64, ptr %36, align 8, !tbaa !38
  %38 = icmp slt i64 %32, %37
  br i1 %38, label %39, label %50

39:                                               ; preds = %31
  %40 = load ptr, ptr %2, align 8, !tbaa !12
  %41 = getelementptr inbounds nuw %struct._generic_SUNMatrix, ptr %40, i32 0, i32 0
  %42 = load ptr, ptr %41, align 8, !tbaa !29
  %43 = getelementptr inbounds nuw %struct._SUNMatrixContent_Sparse, ptr %42, i32 0, i32 7
  %44 = load ptr, ptr %43, align 8, !tbaa !45
  %45 = load i64, ptr %3, align 8, !tbaa !3
  %46 = getelementptr inbounds i64, ptr %44, i64 %45
  store i64 0, ptr %46, align 8, !tbaa !3
  br label %47

47:                                               ; preds = %39
  %48 = load i64, ptr %3, align 8, !tbaa !3
  %49 = add nsw i64 %48, 1
  store i64 %49, ptr %3, align 8, !tbaa !3
  br label %31

50:                                               ; preds = %31
  %51 = load ptr, ptr %2, align 8, !tbaa !12
  %52 = getelementptr inbounds nuw %struct._generic_SUNMatrix, ptr %51, i32 0, i32 0
  %53 = load ptr, ptr %52, align 8, !tbaa !29
  %54 = getelementptr inbounds nuw %struct._SUNMatrixContent_Sparse, ptr %53, i32 0, i32 7
  %55 = load ptr, ptr %54, align 8, !tbaa !45
  %56 = load ptr, ptr %2, align 8, !tbaa !12
  %57 = getelementptr inbounds nuw %struct._generic_SUNMatrix, ptr %56, i32 0, i32 0
  %58 = load ptr, ptr %57, align 8, !tbaa !29
  %59 = getelementptr inbounds nuw %struct._SUNMatrixContent_Sparse, ptr %58, i32 0, i32 3
  %60 = load i64, ptr %59, align 8, !tbaa !38
  %61 = getelementptr inbounds i64, ptr %55, i64 %60
  store i64 0, ptr %61, align 8, !tbaa !3
  call void @llvm.lifetime.end.p0(i64 8, ptr %3) #8
  ret i32 0
}

; Function Attrs: nounwind uwtable
define i32 @SUNMatCopy_Sparse(ptr noundef %0, ptr noundef %1) #0 {
  %3 = alloca ptr, align 8
  %4 = alloca ptr, align 8
  %5 = alloca i64, align 8
  %6 = alloca i64, align 8
  %7 = alloca ptr, align 8
  store ptr %0, ptr %3, align 8, !tbaa !12
  store ptr %1, ptr %4, align 8, !tbaa !12
  call void @llvm.lifetime.start.p0(i64 8, ptr %5) #8
  call void @llvm.lifetime.start.p0(i64 8, ptr %6) #8
  call void @llvm.lifetime.start.p0(i64 8, ptr %7) #8
  %8 = load ptr, ptr %3, align 8, !tbaa !12
  %9 = getelementptr inbounds nuw %struct._generic_SUNMatrix, ptr %8, i32 0, i32 2
  %10 = load ptr, ptr %9, align 8, !tbaa !46
  store ptr %10, ptr %7, align 8, !tbaa !9
  %11 = load ptr, ptr %3, align 8, !tbaa !12
  %12 = getelementptr inbounds nuw %struct._generic_SUNMatrix, ptr %11, i32 0, i32 0
  %13 = load ptr, ptr %12, align 8, !tbaa !29
  %14 = getelementptr inbounds nuw %struct._SUNMatrixContent_Sparse, ptr %13, i32 0, i32 7
  %15 = load ptr, ptr %14, align 8, !tbaa !45
  %16 = load ptr, ptr %3, align 8, !tbaa !12
  %17 = getelementptr inbounds nuw %struct._generic_SUNMatrix, ptr %16, i32 0, i32 0
  %18 = load ptr, ptr %17, align 8, !tbaa !29
  %19 = getelementptr inbounds nuw %struct._SUNMatrixContent_Sparse, ptr %18, i32 0, i32 3
  %20 = load i64, ptr %19, align 8, !tbaa !38
  %21 = getelementptr inbounds i64, ptr %15, i64 %20
  %22 = load i64, ptr %21, align 8, !tbaa !3
  store i64 %22, ptr %6, align 8, !tbaa !3
  %23 = load ptr, ptr %4, align 8, !tbaa !12
  %24 = getelementptr inbounds nuw %struct._generic_SUNMatrix, ptr %23, i32 0, i32 0
  %25 = load ptr, ptr %24, align 8, !tbaa !29
  %26 = getelementptr inbounds nuw %struct._SUNMatrixContent_Sparse, ptr %25, i32 0, i32 2
  %27 = load i64, ptr %26, align 8, !tbaa !37
  %28 = load i64, ptr %6, align 8, !tbaa !3
  %29 = icmp slt i64 %27, %28
  br i1 %29, label %30, label %60

30:                                               ; preds = %2
  %31 = load ptr, ptr %4, align 8, !tbaa !12
  %32 = getelementptr inbounds nuw %struct._generic_SUNMatrix, ptr %31, i32 0, i32 0
  %33 = load ptr, ptr %32, align 8, !tbaa !29
  %34 = getelementptr inbounds nuw %struct._SUNMatrixContent_Sparse, ptr %33, i32 0, i32 6
  %35 = load ptr, ptr %34, align 8, !tbaa !44
  %36 = load i64, ptr %6, align 8, !tbaa !3
  %37 = mul i64 %36, 8
  %38 = call ptr @realloc(ptr noundef %35, i64 noundef %37) #11
  %39 = load ptr, ptr %4, align 8, !tbaa !12
  %40 = getelementptr inbounds nuw %struct._generic_SUNMatrix, ptr %39, i32 0, i32 0
  %41 = load ptr, ptr %40, align 8, !tbaa !29
  %42 = getelementptr inbounds nuw %struct._SUNMatrixContent_Sparse, ptr %41, i32 0, i32 6
  store ptr %38, ptr %42, align 8, !tbaa !44
  %43 = load ptr, ptr %4, align 8, !tbaa !12
  %44 = getelementptr inbounds nuw %struct._generic_SUNMatrix, ptr %43, i32 0, i32 0
  %45 = load ptr, ptr %44, align 8, !tbaa !29
  %46 = getelementptr inbounds nuw %struct._SUNMatrixContent_Sparse, ptr %45, i32 0, i32 4
  %47 = load ptr, ptr %46, align 8, !tbaa !43
  %48 = load i64, ptr %6, align 8, !tbaa !3
  %49 = mul i64 %48, 8
  %50 = call ptr @realloc(ptr noundef %47, i64 noundef %49) #11
  %51 = load ptr, ptr %4, align 8, !tbaa !12
  %52 = getelementptr inbounds nuw %struct._generic_SUNMatrix, ptr %51, i32 0, i32 0
  %53 = load ptr, ptr %52, align 8, !tbaa !29
  %54 = getelementptr inbounds nuw %struct._SUNMatrixContent_Sparse, ptr %53, i32 0, i32 4
  store ptr %50, ptr %54, align 8, !tbaa !43
  %55 = load i64, ptr %6, align 8, !tbaa !3
  %56 = load ptr, ptr %4, align 8, !tbaa !12
  %57 = getelementptr inbounds nuw %struct._generic_SUNMatrix, ptr %56, i32 0, i32 0
  %58 = load ptr, ptr %57, align 8, !tbaa !29
  %59 = getelementptr inbounds nuw %struct._SUNMatrixContent_Sparse, ptr %58, i32 0, i32 2
  store i64 %55, ptr %59, align 8, !tbaa !37
  br label %60

60:                                               ; preds = %30, %2
  %61 = load ptr, ptr %4, align 8, !tbaa !12
  %62 = call i32 @SUNMatZero_Sparse(ptr noundef %61)
  store i64 0, ptr %5, align 8, !tbaa !3
  br label %63

63:                                               ; preds = %98, %60
  %64 = load i64, ptr %5, align 8, !tbaa !3
  %65 = load i64, ptr %6, align 8, !tbaa !3
  %66 = icmp slt i64 %64, %65
  br i1 %66, label %67, label %101

67:                                               ; preds = %63
  %68 = load ptr, ptr %3, align 8, !tbaa !12
  %69 = getelementptr inbounds nuw %struct._generic_SUNMatrix, ptr %68, i32 0, i32 0
  %70 = load ptr, ptr %69, align 8, !tbaa !29
  %71 = getelementptr inbounds nuw %struct._SUNMatrixContent_Sparse, ptr %70, i32 0, i32 4
  %72 = load ptr, ptr %71, align 8, !tbaa !43
  %73 = load i64, ptr %5, align 8, !tbaa !3
  %74 = getelementptr inbounds double, ptr %72, i64 %73
  %75 = load double, ptr %74, align 8, !tbaa !47
  %76 = load ptr, ptr %4, align 8, !tbaa !12
  %77 = getelementptr inbounds nuw %struct._generic_SUNMatrix, ptr %76, i32 0, i32 0
  %78 = load ptr, ptr %77, align 8, !tbaa !29
  %79 = getelementptr inbounds nuw %struct._SUNMatrixContent_Sparse, ptr %78, i32 0, i32 4
  %80 = load ptr, ptr %79, align 8, !tbaa !43
  %81 = load i64, ptr %5, align 8, !tbaa !3
  %82 = getelementptr inbounds double, ptr %80, i64 %81
  store double %75, ptr %82, align 8, !tbaa !47
  %83 = load ptr, ptr %3, align 8, !tbaa !12
  %84 = getelementptr inbounds nuw %struct._generic_SUNMatrix, ptr %83, i32 0, i32 0
  %85 = load ptr, ptr %84, align 8, !tbaa !29
  %86 = getelementptr inbounds nuw %struct._SUNMatrixContent_Sparse, ptr %85, i32 0, i32 6
  %87 = load ptr, ptr %86, align 8, !tbaa !44
  %88 = load i64, ptr %5, align 8, !tbaa !3
  %89 = getelementptr inbounds i64, ptr %87, i64 %88
  %90 = load i64, ptr %89, align 8, !tbaa !3
  %91 = load ptr, ptr %4, align 8, !tbaa !12
  %92 = getelementptr inbounds nuw %struct._generic_SUNMatrix, ptr %91, i32 0, i32 0
  %93 = load ptr, ptr %92, align 8, !tbaa !29
  %94 = getelementptr inbounds nuw %struct._SUNMatrixContent_Sparse, ptr %93, i32 0, i32 6
  %95 = load ptr, ptr %94, align 8, !tbaa !44
  %96 = load i64, ptr %5, align 8, !tbaa !3
  %97 = getelementptr inbounds i64, ptr %95, i64 %96
  store i64 %90, ptr %97, align 8, !tbaa !3
  br label %98

98:                                               ; preds = %67
  %99 = load i64, ptr %5, align 8, !tbaa !3
  %100 = add nsw i64 %99, 1
  store i64 %100, ptr %5, align 8, !tbaa !3
  br label %63

101:                                              ; preds = %63
  store i64 0, ptr %5, align 8, !tbaa !3
  br label %102

102:                                              ; preds = %126, %101
  %103 = load i64, ptr %5, align 8, !tbaa !3
  %104 = load ptr, ptr %3, align 8, !tbaa !12
  %105 = getelementptr inbounds nuw %struct._generic_SUNMatrix, ptr %104, i32 0, i32 0
  %106 = load ptr, ptr %105, align 8, !tbaa !29
  %107 = getelementptr inbounds nuw %struct._SUNMatrixContent_Sparse, ptr %106, i32 0, i32 3
  %108 = load i64, ptr %107, align 8, !tbaa !38
  %109 = icmp slt i64 %103, %108
  br i1 %109, label %110, label %129

110:                                              ; preds = %102
  %111 = load ptr, ptr %3, align 8, !tbaa !12
  %112 = getelementptr inbounds nuw %struct._generic_SUNMatrix, ptr %111, i32 0, i32 0
  %113 = load ptr, ptr %112, align 8, !tbaa !29
  %114 = getelementptr inbounds nuw %struct._SUNMatrixContent_Sparse, ptr %113, i32 0, i32 7
  %115 = load ptr, ptr %114, align 8, !tbaa !45
  %116 = load i64, ptr %5, align 8, !tbaa !3
  %117 = getelementptr inbounds i64, ptr %115, i64 %116
  %118 = load i64, ptr %117, align 8, !tbaa !3
  %119 = load ptr, ptr %4, align 8, !tbaa !12
  %120 = getelementptr inbounds nuw %struct._generic_SUNMatrix, ptr %119, i32 0, i32 0
  %121 = load ptr, ptr %120, align 8, !tbaa !29
  %122 = getelementptr inbounds nuw %struct._SUNMatrixContent_Sparse, ptr %121, i32 0, i32 7
  %123 = load ptr, ptr %122, align 8, !tbaa !45
  %124 = load i64, ptr %5, align 8, !tbaa !3
  %125 = getelementptr inbounds i64, ptr %123, i64 %124
  store i64 %118, ptr %125, align 8, !tbaa !3
  br label %126

126:                                              ; preds = %110
  %127 = load i64, ptr %5, align 8, !tbaa !3
  %128 = add nsw i64 %127, 1
  store i64 %128, ptr %5, align 8, !tbaa !3
  br label %102

129:                                              ; preds = %102
  %130 = load i64, ptr %6, align 8, !tbaa !3
  %131 = load ptr, ptr %4, align 8, !tbaa !12
  %132 = getelementptr inbounds nuw %struct._generic_SUNMatrix, ptr %131, i32 0, i32 0
  %133 = load ptr, ptr %132, align 8, !tbaa !29
  %134 = getelementptr inbounds nuw %struct._SUNMatrixContent_Sparse, ptr %133, i32 0, i32 7
  %135 = load ptr, ptr %134, align 8, !tbaa !45
  %136 = load ptr, ptr %3, align 8, !tbaa !12
  %137 = getelementptr inbounds nuw %struct._generic_SUNMatrix, ptr %136, i32 0, i32 0
  %138 = load ptr, ptr %137, align 8, !tbaa !29
  %139 = getelementptr inbounds nuw %struct._SUNMatrixContent_Sparse, ptr %138, i32 0, i32 3
  %140 = load i64, ptr %139, align 8, !tbaa !38
  %141 = getelementptr inbounds i64, ptr %135, i64 %140
  store i64 %130, ptr %141, align 8, !tbaa !3
  call void @llvm.lifetime.end.p0(i64 8, ptr %7) #8
  call void @llvm.lifetime.end.p0(i64 8, ptr %6) #8
  call void @llvm.lifetime.end.p0(i64 8, ptr %5) #8
  ret i32 0
}