; Function Attrs: nounwind uwtable
define noundef i32 @SUNMatCopy_Sparse(ptr noundef readonly captures(none) %0, ptr noundef readonly captures(none) %1) #0 {
  %3 = load ptr, ptr %0, align 8, !tbaa !20
  %4 = getelementptr inbounds nuw i8, ptr %3, i64 56
  %5 = load ptr, ptr %4, align 8, !tbaa !35
  %6 = getelementptr inbounds nuw i8, ptr %3, i64 24
  %7 = load i64, ptr %6, align 8, !tbaa !31
  %8 = getelementptr inbounds i64, ptr %5, i64 %7
  %9 = load i64, ptr %8, align 8, !tbaa !43
  %10 = load ptr, ptr %1, align 8, !tbaa !20
  %11 = getelementptr inbounds nuw i8, ptr %10, i64 16
  %12 = load i64, ptr %11, align 8, !tbaa !30
  %13 = icmp slt i64 %12, %9
  br i1 %13, label %14, label %27

14:                                               ; preds = %2
  %15 = getelementptr inbounds nuw i8, ptr %10, i64 48
  %16 = load ptr, ptr %15, align 8, !tbaa !34
  %17 = shl i64 %9, 3
  %18 = tail call ptr @realloc(ptr noundef %16, i64 noundef %17) #20
  %19 = load ptr, ptr %1, align 8, !tbaa !20
  %20 = getelementptr inbounds nuw i8, ptr %19, i64 48
  store ptr %18, ptr %20, align 8, !tbaa !34
  %21 = getelementptr inbounds nuw i8, ptr %19, i64 32
  %22 = load ptr, ptr %21, align 8, !tbaa !33
  %23 = tail call ptr @realloc(ptr noundef %22, i64 noundef %17) #20
  %24 = load ptr, ptr %1, align 8, !tbaa !20
  %25 = getelementptr inbounds nuw i8, ptr %24, i64 32
  store ptr %23, ptr %25, align 8, !tbaa !33
  %26 = getelementptr inbounds nuw i8, ptr %24, i64 16
  store i64 %9, ptr %26, align 8, !tbaa !30
  br label %27

27:                                               ; preds = %14, %2
  %28 = phi i64 [ %9, %14 ], [ %12, %2 ]
  %29 = phi ptr [ %24, %14 ], [ %10, %2 ]
  %30 = getelementptr inbounds nuw i8, ptr %29, i64 16
  %31 = icmp sgt i64 %28, 0
  br i1 %31, label %.lr.ph.i, label %.preheader.i

.lr.ph.i:                                         ; preds = %27
  %32 = getelementptr inbounds nuw i8, ptr %29, i64 32
  %33 = load ptr, ptr %32, align 8, !tbaa !33
  %34 = getelementptr inbounds nuw i8, ptr %29, i64 48
  %35 = load ptr, ptr %34, align 8, !tbaa !34
  br label %41

.preheader.i:                                     ; preds = %41, %27
  %36 = getelementptr inbounds nuw i8, ptr %29, i64 24
  %37 = load i64, ptr %36, align 8, !tbaa !31
  %38 = icmp sgt i64 %37, 0
  %39 = getelementptr inbounds nuw i8, ptr %29, i64 56
  %40 = load ptr, ptr %39, align 8, !tbaa !35
  br i1 %38, label %.lr.ph17.i, label %SUNMatZero_Sparse.exit

41:                                               ; preds = %41, %.lr.ph.i
  %.015.i = phi i64 [ 0, %.lr.ph.i ], [ %44, %41 ]
  %42 = getelementptr inbounds nuw double, ptr %33, i64 %.015.i
  store double 0.000000e+00, ptr %42, align 8, !tbaa !41
  %43 = getelementptr inbounds nuw i64, ptr %35, i64 %.015.i
  store i64 0, ptr %43, align 8, !tbaa !43
  %44 = add nuw nsw i64 %.015.i, 1
  %45 = load i64, ptr %30, align 8, !tbaa !30
  %46 = icmp slt i64 %44, %45
  br i1 %46, label %41, label %.preheader.i

.lr.ph17.i:                                       ; preds = %.preheader.i, %.lr.ph17.i
  %.116.i = phi i64 [ %48, %.lr.ph17.i ], [ 0, %.preheader.i ]
  %47 = getelementptr inbounds nuw i64, ptr %40, i64 %.116.i
  store i64 0, ptr %47, align 8, !tbaa !43
  %48 = add nuw nsw i64 %.116.i, 1
  %49 = load i64, ptr %36, align 8, !tbaa !31
  %50 = icmp slt i64 %48, %49
  br i1 %50, label %.lr.ph17.i, label %SUNMatZero_Sparse.exit

SUNMatZero_Sparse.exit:                           ; preds = %.lr.ph17.i, %.preheader.i
  %.lcssa.i = phi i64 [ %37, %.preheader.i ], [ %49, %.lr.ph17.i ]
  %51 = getelementptr inbounds i64, ptr %40, i64 %.lcssa.i
  store i64 0, ptr %51, align 8, !tbaa !43
  %52 = icmp sgt i64 %9, 0
  %.pre = load ptr, ptr %0, align 8, !tbaa !20
  br i1 %52, label %.lr.ph, label %.preheader

.lr.ph:                                           ; preds = %SUNMatZero_Sparse.exit
  %53 = getelementptr inbounds nuw i8, ptr %.pre, i64 32
  %54 = load ptr, ptr %53, align 8, !tbaa !33
  %55 = getelementptr inbounds nuw i8, ptr %29, i64 32
  %56 = load ptr, ptr %55, align 8, !tbaa !33
  %57 = getelementptr inbounds nuw i8, ptr %.pre, i64 48
  %58 = load ptr, ptr %57, align 8, !tbaa !34
  %59 = getelementptr inbounds nuw i8, ptr %29, i64 48
  %60 = load ptr, ptr %59, align 8, !tbaa !34
  br label %66

.preheader:                                       ; preds = %66, %SUNMatZero_Sparse.exit
  %61 = getelementptr inbounds nuw i8, ptr %.pre, i64 24
  %62 = load i64, ptr %61, align 8, !tbaa !31
  %63 = icmp sgt i64 %62, 0
  br i1 %63, label %.lr.ph40, label %._crit_edge

.lr.ph40:                                         ; preds = %.preheader
  %64 = getelementptr inbounds nuw i8, ptr %.pre, i64 56
  %65 = load ptr, ptr %64, align 8, !tbaa !35
  br label %74

66:                                               ; preds = %.lr.ph, %66
  %.038 = phi i64 [ 0, %.lr.ph ], [ %73, %66 ]
  %67 = getelementptr inbounds nuw double, ptr %54, i64 %.038
  %68 = load double, ptr %67, align 8, !tbaa !41
  %69 = getelementptr inbounds nuw double, ptr %56, i64 %.038
  store double %68, ptr %69, align 8, !tbaa !41
  %70 = getelementptr inbounds nuw i64, ptr %58, i64 %.038
  %71 = load i64, ptr %70, align 8, !tbaa !43
  %72 = getelementptr inbounds nuw i64, ptr %60, i64 %.038
  store i64 %71, ptr %72, align 8, !tbaa !43
  %73 = add nuw nsw i64 %.038, 1
  %exitcond.not = icmp eq i64 %73, %9
  br i1 %exitcond.not, label %.preheader, label %66

74:                                               ; preds = %.lr.ph40, %74
  %.139 = phi i64 [ 0, %.lr.ph40 ], [ %78, %74 ]
  %75 = getelementptr inbounds nuw i64, ptr %65, i64 %.139
  %76 = load i64, ptr %75, align 8, !tbaa !43
  %77 = getelementptr inbounds nuw i64, ptr %40, i64 %.139
  store i64 %76, ptr %77, align 8, !tbaa !43
  %78 = add nuw nsw i64 %.139, 1
  %79 = load i64, ptr %61, align 8, !tbaa !31
  %80 = icmp slt i64 %78, %79
  br i1 %80, label %74, label %._crit_edge

._crit_edge:                                      ; preds = %74, %.preheader
  %.lcssa = phi i64 [ %62, %.preheader ], [ %79, %74 ]
  %81 = getelementptr inbounds i64, ptr %40, i64 %.lcssa
  store i64 %9, ptr %81, align 8, !tbaa !43
  ret i32 0
}